; Function Attrs: mustprogress nounwind uwtable
define dso_local noundef zeroext i1 @_ZN4node6crypto4Hmac10HmacUpdateEPKcm(ptr nocapture noundef nonnull readonly align 8 dereferenceable(40) %this, ptr noundef %data, i64 noundef %len) local_unnamed_addr #3 align 2 {
entry:
  %ctx_ = getelementptr inbounds i8, ptr %this, i64 32
  %0 = load ptr, ptr %ctx_, align 8
  %cmp.i.not = icmp eq ptr %0, null
  br i1 %cmp.i.not, label %land.end, label %land.rhs

land.rhs:                                         ; preds = %entry
  %call4 = tail call i32 @HMAC_Update(ptr noundef nonnull %0, ptr noundef %data, i64 noundef %len) #21
  %cmp = icmp eq i32 %call4, 1
  br label %land.end

land.end:                                         ; preds = %land.rhs, %entry
  %1 = phi i1 [ false, %entry ], [ %cmp, %land.rhs ]
  ret i1 %1
}